; Function Attrs: mustprogress uwtable
define dso_local void @_ZN23DefaultProgramGenerator11goGeneratorEv(ptr nocapture noundef nonnull readonly align 8 dereferenceable(40) %0) unnamed_addr #3 align 2 personality ptr @__gxx_personality_v0 {
  %2 = alloca %"class.std::basic_ofstream", align 8
  %3 = getelementptr inbounds i8, ptr %0, i64 32
  %4 = load ptr, ptr %3, align 8
  %5 = getelementptr inbounds i8, ptr %0, i64 8
  %6 = load i32, ptr %5, align 8
  %7 = getelementptr inbounds i8, ptr %0, i64 16
  %8 = load ptr, ptr %7, align 8
  %9 = getelementptr inbounds i8, ptr %0, i64 24
  %10 = load i64, ptr %9, align 8
  %11 = load ptr, ptr %4, align 8
  %12 = getelementptr inbounds i8, ptr %11, i64 16
  %13 = load ptr, ptr %12, align 8
  tail call void %13(ptr noundef nonnull align 8 dereferenceable(8) %4, i32 noundef %6, ptr noundef %8, i64 noundef %10)
  tail call void @_Z16GenerateAllTypesv()
  tail call void @_Z17GenerateFunctionsv()
  %14 = load ptr, ptr %3, align 8
  %15 = load ptr, ptr %14, align 8
  %16 = getelementptr inbounds i8, ptr %15, i64 32
  %17 = load ptr, ptr %16, align 8
  tail call void %17(ptr noundef nonnull align 8 dereferenceable(8) %14)
  %18 = tail call noundef zeroext i1 @_ZN9CGOptions17identify_wrappersEv()
  br i1 %18, label %19, label %36

19:                                               ; preds = %1
  call void @_ZNSt14basic_ofstreamIcSt11char_traitsIcEEC1Ev(ptr noundef nonnull align 8 dereferenceable(248) %2)
  invoke void @_ZNSt14basic_ofstreamIcSt11char_traitsIcEE4openEPKcSt13_Ios_Openmode(ptr noundef nonnull align 8 dereferenceable(248) %2, ptr noundef nonnull @.str.1, i32 noundef 16)
          to label %20 unwind label %34

20:                                               ; preds = %19
  %21 = invoke noundef nonnull align 8 dereferenceable(8) ptr @_ZStlsISt11char_traitsIcEERSt13basic_ostreamIcT_ES5_PKc(ptr noundef nonnull align 8 dereferenceable(8) %2, ptr noundef nonnull @.str.2)
          to label %22 unwind label %34

22:                                               ; preds = %20
  %23 = load ptr, ptr getelementptr inbounds (%"class.std::vector.4", ptr @_ZN11SafeOpFlags13wrapper_namesB5cxx11E, i64 0, i32 0, i32 0, i32 0, i32 1), align 8
  %24 = load ptr, ptr @_ZN11SafeOpFlags13wrapper_namesB5cxx11E, align 8
  %25 = ptrtoint ptr %23 to i64
  %26 = ptrtoint ptr %24 to i64
  %27 = sub i64 %25, %26
  %28 = ashr exact i64 %27, 5
  %29 = invoke noundef nonnull align 8 dereferenceable(8) ptr @_ZNSolsEm(ptr noundef nonnull align 8 dereferenceable(8) %21, i64 noundef %28)
          to label %30 unwind label %34

30:                                               ; preds = %22
  %31 = invoke noundef nonnull align 8 dereferenceable(8) ptr @_ZNSolsEPFRSoS_E(ptr noundef nonnull align 8 dereferenceable(8) %29, ptr noundef nonnull @_ZSt4endlIcSt11char_traitsIcEERSt13basic_ostreamIT_T0_ES6_)
          to label %32 unwind label %34

32:                                               ; preds = %30
  invoke void @_ZNSt14basic_ofstreamIcSt11char_traitsIcEE5closeEv(ptr noundef nonnull align 8 dereferenceable(248) %2)
          to label %33 unwind label %34

33:                                               ; preds = %32
  call void @_ZNSt14basic_ofstreamIcSt11char_traitsIcEED1Ev(ptr noundef nonnull align 8 dereferenceable(248) %2) #8
  br label %36

34:                                               ; preds = %32, %30, %22, %20, %19
  %35 = landingpad { ptr, i32 }
          cleanup
  call void @_ZNSt14basic_ofstreamIcSt11char_traitsIcEED1Ev(ptr noundef nonnull align 8 dereferenceable(248) %2) #8
  resume { ptr, i32 } %35

36:                                               ; preds = %33, %1
  ret void
}